target datalayout = "e-m:e-p270:32:32-p271:32:32-p272:64:64-i64:64-i128:128-f80:128-n8:16:32:64-S128"
target triple = "x86_64-pc-linux-gnu"

%struct.State = type { i32, i32, i32, i32 }
%struct.AVRational = type { i32, i32 }
%struct.AVCodecContext = type { ptr, i32, i32, ptr, i32, i32, ptr, ptr, ptr, i64, i32, i32, ptr, i32, %struct.AVRational, %struct.AVRational, %struct.AVRational, i32, i32, i32, i32, i32, %struct.AVRational, i32, i32, i32, i32, i32, i32, i32, i32, i32, i32, i32, ptr, ptr, i32, float, float, float, float, float, float, float, float, float, i32, i32, i32, i32, i32, i32, i32, i32, i32, i32, i32, i32, ptr, ptr, ptr, i32, i32, i32, i32, i32, i32, i32, i32, i32, i32, %struct.AVChannelLayout, i32, i32, i32, i32, i32, i32, i32, i32, ptr, i32, i32, i32, float, float, i32, i32, i32, i32, i32, ptr, i64, i64, float, float, i32, i32, ptr, ptr, i32, i32, i32, i32, i32, ptr, ptr, ptr, ptr, i32, i32, [8 x i64], i32, i32, i32, i32, i32, i32, i32, ptr, ptr, i32, i32, i32, i32, i32, i32, i32, i32, i32, i32, ptr, ptr, i32, i32, ptr, ptr, ptr, ptr, i32, i32, i64, i32, i32, i64, ptr, i64, ptr, i32, ptr, i32 }
%struct.AVChannelLayout = type { i32, i32, %union.anon.0, ptr }
%union.anon.0 = type { i64 }
%struct.AVFrame = type { [8 x ptr], [8 x i32], ptr, i32, i32, i32, i32, i32, %struct.AVRational, i64, i64, %struct.AVRational, i32, ptr, i32, i32, [8 x ptr], ptr, i32, ptr, i32, i32, i32, i32, i32, i32, i32, i64, ptr, i32, ptr, ptr, i64, i64, i64, i64, ptr, %struct.AVChannelLayout, i64 }

; Function Attrs: nounwind uwtable
define internal void @put_lines_bytes(ptr noundef %0, i32 noundef %1, i32 noundef %2, i32 noundef %3, ptr noundef %4, ptr noundef %5, ptr noundef %6) #0 {
  %8 = alloca ptr, align 8
  %9 = alloca i32, align 4
  %10 = alloca i32, align 4
  %11 = alloca i32, align 4
  %12 = alloca ptr, align 8
  %13 = alloca ptr, align 8
  %14 = alloca ptr, align 8
  %15 = alloca i32, align 4
  store ptr %0, ptr %8, align 8, !tbaa !4
  store i32 %1, ptr %9, align 4, !tbaa !25
  store i32 %2, ptr %10, align 4, !tbaa !25
  store i32 %3, ptr %11, align 4, !tbaa !25
  store ptr %4, ptr %12, align 8, !tbaa !41
  store ptr %5, ptr %13, align 8, !tbaa !23
  store ptr %6, ptr %14, align 8, !tbaa !9
  call void @llvm.lifetime.start.p0(i64 4, ptr %15) #9
  store i32 0, ptr %15, align 4, !tbaa !25
  br label %16

16:                                               ; preds = %59, %7
  %17 = load i32, ptr %15, align 4, !tbaa !25
  %18 = load ptr, ptr %12, align 8, !tbaa !41
  %19 = getelementptr inbounds nuw %struct.State, ptr %18, i32 0, i32 3
  %20 = load i32, ptr %19, align 4, !tbaa !64
  %21 = icmp slt i32 %17, %20
  br i1 %21, label %22, label %32

22:                                               ; preds = %16
  %23 = load ptr, ptr %12, align 8, !tbaa !41
  %24 = getelementptr inbounds nuw %struct.State, ptr %23, i32 0, i32 0
  %25 = load i32, ptr %24, align 4, !tbaa !59
  %26 = load i32, ptr %15, align 4, !tbaa !25
  %27 = add nsw i32 %25, %26
  %28 = load ptr, ptr %8, align 8, !tbaa !4
  %29 = getelementptr inbounds nuw %struct.AVCodecContext, ptr %28, i32 0, i32 19
  %30 = load i32, ptr %29, align 4, !tbaa !56
  %31 = icmp slt i32 %27, %30
  br label %32

32:                                               ; preds = %22, %16
  %33 = phi i1 [ false, %16 ], [ %31, %22 ]
  br i1 %33, label %35, label %34

34:                                               ; preds = %32
  call void @llvm.lifetime.end.p0(i64 4, ptr %15) #9
  br label %62

35:                                               ; preds = %32
  %36 = load ptr, ptr %14, align 8, !tbaa !9
  %37 = getelementptr inbounds nuw %struct.AVFrame, ptr %36, i32 0, i32 0
  %38 = getelementptr inbounds [8 x ptr], ptr %37, i64 0, i64 0
  %39 = load ptr, ptr %38, align 8, !tbaa !23
  %40 = load ptr, ptr %12, align 8, !tbaa !41
  %41 = getelementptr inbounds nuw %struct.State, ptr %40, i32 0, i32 0
  %42 = load i32, ptr %41, align 4, !tbaa !59
  %43 = load i32, ptr %15, align 4, !tbaa !25
  %44 = add nsw i32 %42, %43
  %45 = load ptr, ptr %14, align 8, !tbaa !9
  %46 = getelementptr inbounds nuw %struct.AVFrame, ptr %45, i32 0, i32 1
  %47 = getelementptr inbounds [8 x i32], ptr %46, i64 0, i64 0
  %48 = load i32, ptr %47, align 8, !tbaa !25
  %49 = mul nsw i32 %44, %48
  %50 = sext i32 %49 to i64
  %51 = getelementptr inbounds i8, ptr %39, i64 %50
  %52 = load ptr, ptr %13, align 8, !tbaa !23
  %53 = load ptr, ptr %8, align 8, !tbaa !4
  %54 = getelementptr inbounds nuw %struct.AVCodecContext, ptr %53, i32 0, i32 18
  %55 = load i32, ptr %54, align 8, !tbaa !40
  %56 = load i32, ptr %11, align 4, !tbaa !25
  %57 = mul nsw i32 %55, %56
  %58 = sext i32 %57 to i64
  call void @llvm.memcpy.p0.p0.i64(ptr align 1 %51, ptr align 1 %52, i64 %58, i1 false)
  br label %59

59:                                               ; preds = %35
  %60 = load i32, ptr %15, align 4, !tbaa !25
  %61 = add nsw i32 %60, 1
  store i32 %61, ptr %15, align 4, !tbaa !25
  br label %16, !llvm.loop !76

62:                                               ; preds = %34
  %63 = load ptr, ptr %12, align 8, !tbaa !41
  %64 = getelementptr inbounds nuw %struct.State, ptr %63, i32 0, i32 3
  %65 = load i32, ptr %64, align 4, !tbaa !64
  %66 = load ptr, ptr %12, align 8, !tbaa !41
  %67 = getelementptr inbounds nuw %struct.State, ptr %66, i32 0, i32 0
  %68 = load i32, ptr %67, align 4, !tbaa !59
  %69 = add nsw i32 %68, %65
  store i32 %69, ptr %67, align 4, !tbaa !59
  %70 = load ptr, ptr %12, align 8, !tbaa !41
  %71 = getelementptr inbounds nuw %struct.State, ptr %70, i32 0, i32 3
  store i32 1, ptr %71, align 4, !tbaa !64
  ret void
}