; Function Attrs: nofree norecurse nosync nounwind memory(readwrite, inaccessiblemem: none) uwtable
define internal void @put_lines_bytes(ptr noundef readonly captures(none) %0, i32 %1, i32 %2, i32 noundef %3, ptr noundef captures(none) %4, ptr noundef readonly captures(none) %5, ptr noundef readonly captures(none) %6) unnamed_addr #5 {
  %8 = getelementptr inbounds nuw i8, ptr %4, i64 12
  %9 = load i32, ptr %8, align 4, !tbaa !58
  %10 = icmp sgt i32 %9, 0
  br i1 %10, label %.lr.ph, label %.critedge

.lr.ph:                                           ; preds = %7
  %11 = getelementptr inbounds nuw i8, ptr %0, i64 116
  %12 = getelementptr inbounds nuw i8, ptr %6, i64 64
  %13 = getelementptr inbounds nuw i8, ptr %0, i64 112
  %14 = load i32, ptr %4, align 4, !tbaa !52
  %15 = load i32, ptr %11, align 4, !tbaa !48
  %16 = icmp slt i32 %14, %15
  br i1 %16, label %.lr.ph21, label %.critedge

17:                                               ; preds = %.lr.ph21
  %18 = load i32, ptr %4, align 4, !tbaa !52
  %19 = add nsw i32 %18, %33
  %20 = load i32, ptr %11, align 4, !tbaa !48
  %21 = icmp slt i32 %19, %20
  br i1 %21, label %.lr.ph21, label %.critedge, !llvm.loop !62

..critedge.loopexit_crit_edge:                    ; preds = %.lr.ph21
  br label %.critedge, !llvm.loop !62

.critedge:                                        ; preds = %17, %.lr.ph, %..critedge.loopexit_crit_edge, %7
  %.lcssa = phi i32 [ %9, %7 ], [ %34, %..critedge.loopexit_crit_edge ], [ %9, %.lr.ph ], [ %34, %17 ]
  %22 = load i32, ptr %4, align 4, !tbaa !52
  %23 = add nsw i32 %22, %.lcssa
  store i32 %23, ptr %4, align 4, !tbaa !52
  store i32 1, ptr %8, align 4, !tbaa !58
  ret void

.lr.ph21:                                         ; preds = %.lr.ph, %17
  %24 = phi i32 [ %19, %17 ], [ %14, %.lr.ph ]
  %.01720 = phi i32 [ %33, %17 ], [ 0, %.lr.ph ]
  %25 = load ptr, ptr %6, align 8, !tbaa !40
  %26 = load i32, ptr %12, align 8, !tbaa !41
  %27 = mul nsw i32 %26, %24
  %28 = sext i32 %27 to i64
  %29 = getelementptr inbounds i8, ptr %25, i64 %28
  %30 = load i32, ptr %13, align 8, !tbaa !32
  %31 = mul nsw i32 %30, %3
  %32 = sext i32 %31 to i64
  tail call void @llvm.memcpy.p0.p0.i64(ptr align 1 %29, ptr align 1 %5, i64 %32, i1 false)
  %33 = add nuw nsw i32 %.01720, 1
  %34 = load i32, ptr %8, align 4, !tbaa !58
  %35 = icmp slt i32 %33, %34
  br i1 %35, label %17, label %..critedge.loopexit_crit_edge, !llvm.loop !62
}